; Function Attrs: mustprogress uwtable
define noundef ptr @_ZN6Assimp13DefaultLogger6createEPKcNS_6Logger11LogSeverityEjPNS_8IOSystemE(ptr noundef %name, i32 noundef %severity, i32 noundef %defStreams, ptr noundef %io) local_unnamed_addr #5 align 2 personality ptr @__gxx_personality_v0 {
entry:
  %0 = load ptr, ptr @_ZN6Assimp13DefaultLogger9m_pLoggerE, align 8
  %tobool.not = icmp eq ptr %0, null
  %cmp.i = icmp eq ptr %0, @_ZN6Assimp13DefaultLogger13s_pNullLoggerE
  %or.cond7 = or i1 %tobool.not, %cmp.i
  br i1 %or.cond7, label %if.end, label %delete.notnull

delete.notnull:                                   ; preds = %entry
  %vtable = load ptr, ptr %0, align 8
  %vfn = getelementptr inbounds i8, ptr %vtable, i64 8
  %1 = load ptr, ptr %vfn, align 8
  tail call void %1(ptr noundef nonnull align 8 dereferenceable(12) %0) #20
  br label %if.end

if.end:                                           ; preds = %delete.notnull, %entry
  %call1 = tail call noundef ptr @_ZN6Assimp6Intern22AllocateFromAssimpHeapnwEm(i64 noundef 2104)
  invoke void @_ZN6Assimp13DefaultLoggerC1ENS_6Logger11LogSeverityE(ptr noundef nonnull align 8 dereferenceable(2104) %call1, i32 noundef %severity)
          to label %invoke.cont unwind label %lpad

invoke.cont:                                      ; preds = %if.end
  store ptr %call1, ptr @_ZN6Assimp13DefaultLogger9m_pLoggerE, align 8
  %and = and i32 %defStreams, 8
  %tobool2.not = icmp eq i32 %and, 0
  br i1 %tobool2.not, label %if.end8, label %if.then3

if.then3:                                         ; preds = %invoke.cont
  %vtable5 = load ptr, ptr %call1, align 8
  %vfn6 = getelementptr inbounds i8, ptr %vtable5, i64 16
  %2 = load ptr, ptr %vfn6, align 8
  %call7 = tail call noundef zeroext i1 %2(ptr noundef nonnull align 8 dereferenceable(12) %call1, ptr noundef null, i32 noundef 15)
  br label %if.end8

common.resume:                                    ; preds = %lpad9.i, %lpad
  %call8.i.sink = phi ptr [ %call8.i, %lpad9.i ], [ %call1, %lpad ]
  %common.resume.op = phi { ptr, i32 } [ %10, %lpad9.i ], [ %3, %lpad ]
  tail call void @_ZN6Assimp6Intern22AllocateFromAssimpHeapdlEPv(ptr noundef %call8.i.sink) #20
  resume { ptr, i32 } %common.resume.op

lpad:                                             ; preds = %if.end
  %3 = landingpad { ptr, i32 }
          cleanup
  br label %common.resume

if.end8:                                          ; preds = %if.then3, %invoke.cont
  %and9 = and i32 %defStreams, 2
  %tobool10.not = icmp eq i32 %and9, 0
  br i1 %tobool10.not, label %if.end16, label %if.then11

if.then11:                                        ; preds = %if.end8
  %4 = load ptr, ptr @_ZN6Assimp13DefaultLogger9m_pLoggerE, align 8
  %call3.i = tail call noundef ptr @_ZN6Assimp6Intern22AllocateFromAssimpHeapnwEm(i64 noundef 16)
  store ptr getelementptr inbounds ({ [5 x ptr] }, ptr @_ZTVN6Assimp19StdOStreamLogStreamE, i64 0, i32 0, i64 2), ptr %call3.i, align 8
  %mOstream.i3.i = getelementptr inbounds i8, ptr %call3.i, i64 8
  store ptr @_ZSt4cout, ptr %mOstream.i3.i, align 8
  %vtable13 = load ptr, ptr %4, align 8
  %vfn14 = getelementptr inbounds i8, ptr %vtable13, i64 16
  %5 = load ptr, ptr %vfn14, align 8
  %call15 = tail call noundef zeroext i1 %5(ptr noundef nonnull align 8 dereferenceable(12) %4, ptr noundef nonnull %call3.i, i32 noundef 15)
  br label %if.end16

if.end16:                                         ; preds = %if.then11, %if.end8
  %and17 = and i32 %defStreams, 4
  %tobool18.not = icmp eq i32 %and17, 0
  br i1 %tobool18.not, label %if.end24, label %if.then19

if.then19:                                        ; preds = %if.end16
  %6 = load ptr, ptr @_ZN6Assimp13DefaultLogger9m_pLoggerE, align 8
  %call.i = tail call noundef ptr @_ZN6Assimp6Intern22AllocateFromAssimpHeapnwEm(i64 noundef 16)
  store ptr getelementptr inbounds ({ [5 x ptr] }, ptr @_ZTVN6Assimp19StdOStreamLogStreamE, i64 0, i32 0, i64 2), ptr %call.i, align 8
  %mOstream.i3.i6 = getelementptr inbounds i8, ptr %call.i, i64 8
  store ptr @_ZSt4cerr, ptr %mOstream.i3.i6, align 8
  %vtable21 = load ptr, ptr %6, align 8
  %vfn22 = getelementptr inbounds i8, ptr %vtable21, i64 16
  %7 = load ptr, ptr %vfn22, align 8
  %call23 = tail call noundef zeroext i1 %7(ptr noundef nonnull align 8 dereferenceable(12) %6, ptr noundef nonnull %call.i, i32 noundef 15)
  br label %if.end24

if.end24:                                         ; preds = %if.then19, %if.end16
  %and25 = and i32 %defStreams, 1
  %tobool26 = icmp ne i32 %and25, 0
  %tobool28 = icmp ne ptr %name, null
  %or.cond = and i1 %tobool28, %tobool26
  br i1 %or.cond, label %land.lhs.true29, label %if.end36

land.lhs.true29:                                  ; preds = %if.end24
  %8 = load i8, ptr %name, align 1
  %tobool30.not = icmp eq i8 %8, 0
  br i1 %tobool30.not, label %if.end36, label %cond.true.i

cond.true.i:                                      ; preds = %land.lhs.true29
  %9 = load ptr, ptr @_ZN6Assimp13DefaultLogger9m_pLoggerE, align 8
  %call8.i = tail call noundef ptr @_ZN6Assimp6Intern22AllocateFromAssimpHeapnwEm(i64 noundef 16)
  invoke void @_ZN6Assimp13FileLogStreamC2EPKcPNS_8IOSystemE(ptr noundef nonnull align 8 dereferenceable(16) %call8.i, ptr noundef nonnull %name, ptr noundef %io)
          to label %_ZN6Assimp9LogStream19createDefaultStreamE18aiDefaultLogStreamPKcPNS_8IOSystemE.exit unwind label %lpad9.i

lpad9.i:                                          ; preds = %cond.true.i
  %10 = landingpad { ptr, i32 }
          cleanup
  br label %common.resume

_ZN6Assimp9LogStream19createDefaultStreamE18aiDefaultLogStreamPKcPNS_8IOSystemE.exit: ; preds = %cond.true.i
  %vtable33 = load ptr, ptr %9, align 8
  %vfn34 = getelementptr inbounds i8, ptr %vtable33, i64 16
  %11 = load ptr, ptr %vfn34, align 8
  %call35 = tail call noundef zeroext i1 %11(ptr noundef nonnull align 8 dereferenceable(12) %9, ptr noundef nonnull %call8.i, i32 noundef 15)
  br label %if.end36

if.end36:                                         ; preds = %_ZN6Assimp9LogStream19createDefaultStreamE18aiDefaultLogStreamPKcPNS_8IOSystemE.exit, %land.lhs.true29, %if.end24
  %12 = load ptr, ptr @_ZN6Assimp13DefaultLogger9m_pLoggerE, align 8
  ret ptr %12
}